target datalayout = "e-m:e-p270:32:32-p271:32:32-p272:64:64-i64:64-i128:128-f80:128-n8:16:32:64-S128"
target triple = "x86_64-pc-linux-gnu"

%struct.PJconsts = type { ptr, ptr, ptr, ptr, ptr, ptr, ptr, ptr, ptr, ptr, ptr, ptr, i32, ptr, ptr, ptr, ptr, ptr, ptr, ptr, ptr, double, double, double, double, double, double, double, double, double, double, double, double, double, double, double, double, double, double, double, double, double, double, i32, i32, i32, i32, i32, i32, i32, i32, i32, i32, i32, ptr, ptr, ptr, ptr, ptr, ptr, double, double, double, double, double, double, double, double, double, double, double, i32, [7 x double], i32, ptr, ptr, double, double, i32, [4 x i8], %"class.std::shared_ptr", i8, double, i8, %"class.std::__cxx11::basic_string", %"class.std::__cxx11::basic_string", %"class.std::__cxx11::basic_string", i8, %"class.std::vector", i32, %"class.std::vector.3", i32, i8, i8, i8, ptr }
%"class.std::shared_ptr" = type { %"class.std::__shared_ptr" }
%"class.std::__shared_ptr" = type { ptr, %"class.std::__shared_count" }
%"class.std::__shared_count" = type { ptr }
%"class.std::__cxx11::basic_string" = type { %"struct.std::__cxx11::basic_string<char>::_Alloc_hider", i64, %union.anon }
%"struct.std::__cxx11::basic_string<char>::_Alloc_hider" = type { ptr }
%union.anon = type { i64, [8 x i8] }
%"class.std::vector" = type { %"struct.std::_Vector_base" }
%"struct.std::_Vector_base" = type { %"struct.std::_Vector_base<osgeo::proj::operation::GridDescription, std::allocator<osgeo::proj::operation::GridDescription>>::_Vector_impl" }
%"struct.std::_Vector_base<osgeo::proj::operation::GridDescription, std::allocator<osgeo::proj::operation::GridDescription>>::_Vector_impl" = type { %"struct.std::_Vector_base<osgeo::proj::operation::GridDescription, std::allocator<osgeo::proj::operation::GridDescription>>::_Vector_impl_data" }
%"struct.std::_Vector_base<osgeo::proj::operation::GridDescription, std::allocator<osgeo::proj::operation::GridDescription>>::_Vector_impl_data" = type { ptr, ptr, ptr }
%"class.std::vector.3" = type { %"struct.std::_Vector_base.4" }
%"struct.std::_Vector_base.4" = type { %"struct.std::_Vector_base<PJCoordOperation, std::allocator<PJCoordOperation>>::_Vector_impl" }
%"struct.std::_Vector_base<PJCoordOperation, std::allocator<PJCoordOperation>>::_Vector_impl" = type { %"struct.std::_Vector_base<PJCoordOperation, std::allocator<PJCoordOperation>>::_Vector_impl_data" }
%"struct.std::_Vector_base<PJCoordOperation, std::allocator<PJCoordOperation>>::_Vector_impl_data" = type { ptr, ptr, ptr }
%"struct.(anonymous namespace)::tmerc_data" = type { %"struct.(anonymous namespace)::EvendenSnyder", %"struct.(anonymous namespace)::PoderEngsager" }
%"struct.(anonymous namespace)::EvendenSnyder" = type { double, double, ptr }
%"struct.(anonymous namespace)::PoderEngsager" = type { double, double, [6 x double], [6 x double], [6 x double], [6 x double] }
%struct.PJ_LP = type { double, double }
%struct.PJ_XY = type { double, double }
%union.PJ_COORD = type { [4 x double] }

; Function Attrs: mustprogress uwtable
define internal { double, double } @_ZL19tmerc_spherical_inv5PJ_XYP8PJconsts(double %0, double %1, ptr noundef %2) #0 {
  %4 = alloca %struct.PJ_LP, align 8
  %5 = alloca %struct.PJ_XY, align 8
  %6 = alloca ptr, align 8
  %7 = alloca %struct.PJ_LP, align 8
  %8 = alloca double, align 8
  %9 = alloca double, align 8
  %10 = alloca ptr, align 8
  %11 = alloca %union.PJ_COORD, align 8
  %12 = alloca i32, align 4
  %13 = alloca double, align 8
  %14 = getelementptr inbounds nuw { double, double }, ptr %5, i32 0, i32 0
  store double %0, ptr %14, align 8
  %15 = getelementptr inbounds nuw { double, double }, ptr %5, i32 0, i32 1
  store double %1, ptr %15, align 8
  store ptr %2, ptr %6, align 8, !tbaa !3
  call void @llvm.lifetime.start.p0(i64 16, ptr %7) #11
  call void @llvm.memset.p0.i64(ptr align 8 %7, i8 0, i64 16, i1 false)
  call void @llvm.lifetime.start.p0(i64 8, ptr %8) #11
  call void @llvm.lifetime.start.p0(i64 8, ptr %9) #11
  call void @llvm.lifetime.start.p0(i64 8, ptr %10) #11
  %16 = load ptr, ptr %6, align 8, !tbaa !3
  %17 = getelementptr inbounds nuw %struct.PJconsts, ptr %16, i32 0, i32 11
  %18 = load ptr, ptr %17, align 8, !tbaa !76
  %19 = getelementptr inbounds nuw %"struct.(anonymous namespace)::tmerc_data", ptr %18, i32 0, i32 0
  store ptr %19, ptr %10, align 8, !tbaa !90
  %20 = getelementptr inbounds nuw %struct.PJ_XY, ptr %5, i32 0, i32 0
  %21 = load double, ptr %20, align 8, !tbaa !96
  %22 = load ptr, ptr %10, align 8, !tbaa !90
  %23 = getelementptr inbounds nuw %"struct.(anonymous namespace)::EvendenSnyder", ptr %22, i32 0, i32 0
  %24 = load double, ptr %23, align 8, !tbaa !95
  %25 = fdiv double %21, %24
  %26 = call double @exp(double noundef %25) #11, !tbaa !84
  store double %26, ptr %8, align 8, !tbaa !98
  %27 = load double, ptr %8, align 8, !tbaa !98
  %28 = fcmp oeq double %27, 0.000000e+00
  br i1 %28, label %29, label %32

29:                                               ; preds = %3
  %30 = load ptr, ptr %6, align 8, !tbaa !3
  %31 = call i32 @proj_errno_set(ptr noundef %30, i32 noundef 2050)
  call void @llvm.lifetime.start.p0(i64 32, ptr %11) #11
  call void @_Z16proj_coord_errorv(ptr dead_on_unwind writable sret(%union.PJ_COORD) align 8 %11)
  call void @llvm.memcpy.p0.p0.i64(ptr align 8 %4, ptr align 8 %11, i64 16, i1 false), !tbaa.struct !99
  call void @llvm.lifetime.end.p0(i64 32, ptr %11) #11
  store i32 1, ptr %12, align 4
  br label %79

32:                                               ; preds = %3
  %33 = load double, ptr %8, align 8, !tbaa !98
  %34 = load double, ptr %8, align 8, !tbaa !98
  %35 = fdiv double 1.000000e+00, %34
  %36 = fsub double %33, %35
  %37 = fmul double 5.000000e-01, %36
  store double %37, ptr %9, align 8, !tbaa !98
  call void @llvm.lifetime.start.p0(i64 8, ptr %13) #11
  %38 = load ptr, ptr %6, align 8, !tbaa !3
  %39 = getelementptr inbounds nuw %struct.PJconsts, ptr %38, i32 0, i32 61
  %40 = load double, ptr %39, align 8, !tbaa !72
  %41 = getelementptr inbounds nuw %struct.PJ_XY, ptr %5, i32 0, i32 1
  %42 = load double, ptr %41, align 8, !tbaa !100
  %43 = load ptr, ptr %10, align 8, !tbaa !90
  %44 = getelementptr inbounds nuw %"struct.(anonymous namespace)::EvendenSnyder", ptr %43, i32 0, i32 0
  %45 = load double, ptr %44, align 8, !tbaa !95
  %46 = fdiv double %42, %45
  %47 = fadd double %40, %46
  store double %47, ptr %13, align 8, !tbaa !98
  %48 = load double, ptr %13, align 8, !tbaa !98
  %49 = call double @cos(double noundef %48) #11, !tbaa !84
  store double %49, ptr %8, align 8, !tbaa !98
  %50 = load double, ptr %8, align 8, !tbaa !98
  %51 = load double, ptr %8, align 8, !tbaa !98
  %52 = fneg double %50
  %53 = call double @llvm.fmuladd.f64(double %52, double %51, double 1.000000e+00)
  %54 = load double, ptr %9, align 8, !tbaa !98
  %55 = load double, ptr %9, align 8, !tbaa !98
  %56 = call double @llvm.fmuladd.f64(double %54, double %55, double 1.000000e+00)
  %57 = fdiv double %53, %56
  %58 = call double @sqrt(double noundef %57) #11, !tbaa !84
  %59 = call double @asin(double noundef %58) #11, !tbaa !84
  %60 = getelementptr inbounds nuw %struct.PJ_LP, ptr %7, i32 0, i32 1
  store double %59, ptr %60, align 8, !tbaa !101
  %61 = getelementptr inbounds nuw %struct.PJ_LP, ptr %7, i32 0, i32 1
  %62 = load double, ptr %61, align 8, !tbaa !101
  %63 = load double, ptr %13, align 8, !tbaa !98
  %64 = call double @llvm.copysign.f64(double %62, double %63)
  %65 = getelementptr inbounds nuw %struct.PJ_LP, ptr %7, i32 0, i32 1
  store double %64, ptr %65, align 8, !tbaa !101
  %66 = load double, ptr %9, align 8, !tbaa !98
  %67 = fcmp une double %66, 0.000000e+00
  br i1 %67, label %71, label %68

68:                                               ; preds = %32
  %69 = load double, ptr %8, align 8, !tbaa !98
  %70 = fcmp une double %69, 0.000000e+00
  br i1 %70, label %71, label %75

71:                                               ; preds = %68, %32
  %72 = load double, ptr %9, align 8, !tbaa !98
  %73 = load double, ptr %8, align 8, !tbaa !98
  %74 = call double @atan2(double noundef %72, double noundef %73) #11, !tbaa !84
  br label %76

75:                                               ; preds = %68
  br label %76

76:                                               ; preds = %75, %71
  %77 = phi double [ %74, %71 ], [ 0.000000e+00, %75 ]
  %78 = getelementptr inbounds nuw %struct.PJ_LP, ptr %7, i32 0, i32 0
  store double %77, ptr %78, align 8, !tbaa !103
  call void @llvm.memcpy.p0.p0.i64(ptr align 8 %4, ptr align 8 %7, i64 16, i1 false), !tbaa.struct !99
  store i32 1, ptr %12, align 4
  call void @llvm.lifetime.end.p0(i64 8, ptr %13) #11
  br label %79

79:                                               ; preds = %76, %29
  call void @llvm.lifetime.end.p0(i64 8, ptr %10) #11
  call void @llvm.lifetime.end.p0(i64 8, ptr %9) #11
  call void @llvm.lifetime.end.p0(i64 8, ptr %8) #11
  call void @llvm.lifetime.end.p0(i64 16, ptr %7) #11
  %80 = load { double, double }, ptr %4, align 8
  ret { double, double } %80
}