; Function Attrs: mustprogress uwtable
define internal { double, double } @_ZL19tmerc_spherical_inv5PJ_XYP8PJconsts(double %0, double %1, ptr noundef %2) #0 {
  %4 = alloca %union.PJ_COORD, align 8
  %5 = getelementptr inbounds nuw i8, ptr %2, i64 88
  %6 = load ptr, ptr %5, align 8, !tbaa !70
  %7 = load double, ptr %6, align 8, !tbaa !78
  %8 = fdiv double %0, %7
  %9 = tail call double @exp(double noundef %8) #11, !tbaa !76
  %10 = fcmp oeq double %9, 0.000000e+00
  br i1 %10, label %11, label %13

11:                                               ; preds = %3
  %12 = tail call i32 @proj_errno_set(ptr noundef nonnull %2, i32 noundef 2050)
  call void @llvm.lifetime.start.p0(i64 32, ptr nonnull %4) #11
  call void @_Z16proj_coord_errorv(ptr dead_on_unwind nonnull writable sret(%union.PJ_COORD) align 8 %4)
  %.sroa.020.0.copyload = load double, ptr %4, align 8, !tbaa !87
  %.sroa.3.0..sroa_idx = getelementptr inbounds nuw i8, ptr %4, i64 8
  %.sroa.3.0.copyload = load double, ptr %.sroa.3.0..sroa_idx, align 8, !tbaa !87
  call void @llvm.lifetime.end.p0(i64 32, ptr nonnull %4) #11
  br label %33

13:                                               ; preds = %3
  %14 = fdiv double 1.000000e+00, %9
  %15 = fsub double %9, %14
  %16 = fmul double %15, 5.000000e-01
  %17 = getelementptr inbounds nuw i8, ptr %2, i64 448
  %18 = load double, ptr %17, align 8, !tbaa !68
  %19 = fdiv double %1, %7
  %20 = fadd double %19, %18
  %21 = tail call double @cos(double noundef %20) #11, !tbaa !76
  %22 = fneg double %21
  %23 = tail call double @llvm.fmuladd.f64(double %22, double %21, double 1.000000e+00)
  %24 = tail call double @llvm.fmuladd.f64(double %16, double %16, double 1.000000e+00)
  %25 = fdiv double %23, %24
  %26 = tail call double @sqrt(double noundef %25) #11, !tbaa !76
  %27 = tail call double @asin(double noundef %26) #11, !tbaa !76
  %28 = tail call double @llvm.copysign.f64(double %27, double %20)
  %29 = fcmp une double %16, 0.000000e+00
  %30 = fcmp une double %21, 0.000000e+00
  %or.cond = select i1 %29, i1 true, i1 %30
  br i1 %or.cond, label %31, label %33

31:                                               ; preds = %13
  %32 = tail call double @atan2(double noundef %16, double noundef %21) #11, !tbaa !76
  br label %33

33:                                               ; preds = %31, %13, %11
  %.sroa.020.0 = phi double [ %.sroa.020.0.copyload, %11 ], [ %32, %31 ], [ 0.000000e+00, %13 ]
  %.sroa.3.0 = phi double [ %.sroa.3.0.copyload, %11 ], [ %28, %31 ], [ %28, %13 ]
  %.fca.0.insert = insertvalue { double, double } poison, double %.sroa.020.0, 0
  %.fca.1.insert = insertvalue { double, double } %.fca.0.insert, double %.sroa.3.0, 1
  ret { double, double } %.fca.1.insert
}